target datalayout = "e-m:e-p270:32:32-p271:32:32-p272:64:64-i64:64-i128:128-f80:128-n8:16:32:64-S128"
target triple = "x86_64-pc-linux-gnu"

@.str.370 = private unnamed_addr constant [13 x i8] c"IBM-3278-2-E\00", align 1
@.str.371 = private unnamed_addr constant [11 x i8] c"IBM-3278-2\00", align 1
@.str.372 = private unnamed_addr constant [11 x i8] c"IBM-3278-3\00", align 1
@.str.373 = private unnamed_addr constant [11 x i8] c"IBM-3278-4\00", align 1
@.str.374 = private unnamed_addr constant [11 x i8] c"IBM-3278-5\00", align 1
@.str.375 = private unnamed_addr constant [11 x i8] c"IBM-3277-2\00", align 1
@.str.376 = private unnamed_addr constant [11 x i8] c"IBM-3279-3\00", align 1
@.str.377 = private unnamed_addr constant [11 x i8] c"IBM-3279-4\00", align 1
@.str.378 = private unnamed_addr constant [13 x i8] c"IBM-3279-2-E\00", align 1
@.str.379 = private unnamed_addr constant [11 x i8] c"IBM-3279-2\00", align 1
@.str.380 = private unnamed_addr constant [13 x i8] c"IBM-3279-4-E\00", align 1

; Function Attrs: null_pointer_is_valid sspstrong uwtable
define internal void @check_tn3270_model(ptr noundef %0, ptr noundef %1) #0 {
  %3 = alloca ptr, align 8
  %4 = alloca ptr, align 8
  %5 = alloca i32, align 4
  store ptr %0, ptr %3, align 8
  store ptr %1, ptr %4, align 8
  call void @llvm.lifetime.start.p0(i64 4, ptr %5) #7
  %6 = load ptr, ptr %4, align 8
  %7 = call i32 @strcmp(ptr noundef %6, ptr noundef @.str.370) #8
  %8 = icmp eq i32 %7, 0
  br i1 %8, label %49, label %9

9:                                                ; preds = %2
  %10 = load ptr, ptr %4, align 8
  %11 = call i32 @strcmp(ptr noundef %10, ptr noundef @.str.371) #8
  %12 = icmp eq i32 %11, 0
  br i1 %12, label %49, label %13

13:                                               ; preds = %9
  %14 = load ptr, ptr %4, align 8
  %15 = call i32 @strcmp(ptr noundef %14, ptr noundef @.str.372) #8
  %16 = icmp eq i32 %15, 0
  br i1 %16, label %49, label %17

17:                                               ; preds = %13
  %18 = load ptr, ptr %4, align 8
  %19 = call i32 @strcmp(ptr noundef %18, ptr noundef @.str.373) #8
  %20 = icmp eq i32 %19, 0
  br i1 %20, label %49, label %21

21:                                               ; preds = %17
  %22 = load ptr, ptr %4, align 8
  %23 = call i32 @strcmp(ptr noundef %22, ptr noundef @.str.374) #8
  %24 = icmp eq i32 %23, 0
  br i1 %24, label %49, label %25

25:                                               ; preds = %21
  %26 = load ptr, ptr %4, align 8
  %27 = call i32 @strcmp(ptr noundef %26, ptr noundef @.str.375) #8
  %28 = icmp eq i32 %27, 0
  br i1 %28, label %49, label %29

29:                                               ; preds = %25
  %30 = load ptr, ptr %4, align 8
  %31 = call i32 @strcmp(ptr noundef %30, ptr noundef @.str.376) #8
  %32 = icmp eq i32 %31, 0
  br i1 %32, label %49, label %33

33:                                               ; preds = %29
  %34 = load ptr, ptr %4, align 8
  %35 = call i32 @strcmp(ptr noundef %34, ptr noundef @.str.377) #8
  %36 = icmp eq i32 %35, 0
  br i1 %36, label %49, label %37

37:                                               ; preds = %33
  %38 = load ptr, ptr %4, align 8
  %39 = call i32 @strcmp(ptr noundef %38, ptr noundef @.str.378) #8
  %40 = icmp eq i32 %39, 0
  br i1 %40, label %49, label %41

41:                                               ; preds = %37
  %42 = load ptr, ptr %4, align 8
  %43 = call i32 @strcmp(ptr noundef %42, ptr noundef @.str.379) #8
  %44 = icmp eq i32 %43, 0
  br i1 %44, label %49, label %45

45:                                               ; preds = %41
  %46 = load ptr, ptr %4, align 8
  %47 = call i32 @strcmp(ptr noundef %46, ptr noundef @.str.380) #8
  %48 = icmp eq i32 %47, 0
  br i1 %48, label %49, label %57

49:                                               ; preds = %45, %41, %37, %33, %29, %25, %21, %17, %13, %9, %2
  %50 = load ptr, ptr %4, align 8
  %51 = getelementptr i8, ptr %50, i64 9
  %52 = load i8, ptr %51, align 1
  %53 = sext i8 %52 to i32
  %54 = sub i32 %53, 48
  store i32 %54, ptr %5, align 4
  %55 = load ptr, ptr %3, align 8
  %56 = load i32, ptr %5, align 4
  call void @add_tn3270_conversation(ptr noundef %55, i32 noundef 0, i32 noundef %56)
  br label %57

57:                                               ; preds = %49, %45
  call void @llvm.lifetime.end.p0(i64 4, ptr %5) #7
  ret void
}