; Function Attrs: null_pointer_is_valid sspstrong uwtable
define internal fastcc void @check_tn3270_model(ptr noundef %0, ptr noundef readonly captures(none) %1) unnamed_addr #0 {
  %3 = tail call i32 @strcmp(ptr noundef %1, ptr noundef nonnull dereferenceable(13) @.str.370) #9
  %4 = icmp eq i32 %3, 0
  br i1 %4, label %35, label %5

5:                                                ; preds = %2
  %6 = tail call i32 @strcmp(ptr noundef %1, ptr noundef nonnull dereferenceable(11) @.str.371) #9
  %7 = icmp eq i32 %6, 0
  br i1 %7, label %35, label %8

8:                                                ; preds = %5
  %9 = tail call i32 @strcmp(ptr noundef %1, ptr noundef nonnull dereferenceable(11) @.str.372) #9
  %10 = icmp eq i32 %9, 0
  br i1 %10, label %35, label %11

11:                                               ; preds = %8
  %12 = tail call i32 @strcmp(ptr noundef %1, ptr noundef nonnull dereferenceable(11) @.str.373) #9
  %13 = icmp eq i32 %12, 0
  br i1 %13, label %35, label %14

14:                                               ; preds = %11
  %15 = tail call i32 @strcmp(ptr noundef %1, ptr noundef nonnull dereferenceable(11) @.str.374) #9
  %16 = icmp eq i32 %15, 0
  br i1 %16, label %35, label %17

17:                                               ; preds = %14
  %18 = tail call i32 @strcmp(ptr noundef %1, ptr noundef nonnull dereferenceable(11) @.str.375) #9
  %19 = icmp eq i32 %18, 0
  br i1 %19, label %35, label %20

20:                                               ; preds = %17
  %21 = tail call i32 @strcmp(ptr noundef %1, ptr noundef nonnull dereferenceable(11) @.str.376) #9
  %22 = icmp eq i32 %21, 0
  br i1 %22, label %35, label %23

23:                                               ; preds = %20
  %24 = tail call i32 @strcmp(ptr noundef %1, ptr noundef nonnull dereferenceable(11) @.str.377) #9
  %25 = icmp eq i32 %24, 0
  br i1 %25, label %35, label %26

26:                                               ; preds = %23
  %27 = tail call i32 @strcmp(ptr noundef %1, ptr noundef nonnull dereferenceable(13) @.str.378) #9
  %28 = icmp eq i32 %27, 0
  br i1 %28, label %35, label %29

29:                                               ; preds = %26
  %30 = tail call i32 @strcmp(ptr noundef %1, ptr noundef nonnull dereferenceable(11) @.str.379) #9
  %31 = icmp eq i32 %30, 0
  br i1 %31, label %35, label %32

32:                                               ; preds = %29
  %33 = tail call i32 @strcmp(ptr noundef %1, ptr noundef nonnull dereferenceable(13) @.str.380) #9
  %34 = icmp eq i32 %33, 0
  br i1 %34, label %35, label %40

35:                                               ; preds = %32, %29, %26, %23, %20, %17, %14, %11, %8, %5, %2
  %36 = getelementptr i8, ptr %1, i64 9
  %37 = load i8, ptr %36, align 1
  %38 = sext i8 %37 to i32
  %39 = add nsw i32 %38, -48
  tail call void @add_tn3270_conversation(ptr noundef %0, i32 noundef 0, i32 noundef %39)
  br label %40

40:                                               ; preds = %35, %32
  ret void
}